; ModuleID = 'source-C-CXX/28/828.c'
source_filename = "source-C-CXX/28/828.c"
target datalayout = "e-m:e-p270:32:32-p271:32:32-p272:64:64-i64:64-f80:128-n8:16:32:64-S128"
target triple = "x86_64-pc-linux-gnu"

@.str = private unnamed_addr constant [3 x i8] c"%d\00", align 1
@.str.1 = private unnamed_addr constant [7 x i8] c"%.3lf\0A\00", align 1

; Function Attrs: nofree nounwind sspstrong uwtable
define dso_local i32 @main() local_unnamed_addr #0 {
  %1 = alloca i32, align 4
  %2 = alloca [50 x i32], align 16
  %3 = alloca [100 x i32], align 16
  %4 = bitcast i32* %1 to i8*
  call void @llvm.lifetime.start.p0i8(i64 4, i8* nonnull %4) #3
  %5 = bitcast [50 x i32]* %2 to i8*
  call void @llvm.lifetime.start.p0i8(i64 200, i8* nonnull %5) #3
  %6 = bitcast [100 x i32]* %3 to i8*
  call void @llvm.lifetime.start.p0i8(i64 400, i8* nonnull %6) #3
  %7 = getelementptr inbounds [100 x i32], [100 x i32]* %3, i64 0, i64 0
  store i32 1, i32* %7, align 16, !tbaa !5
  %8 = getelementptr inbounds [100 x i32], [100 x i32]* %3, i64 0, i64 1
  store i32 2, i32* %8, align 4, !tbaa !5
  %9 = getelementptr inbounds [100 x i32], [100 x i32]* %3, i64 0, i64 2
  store i32 3, i32* %9, align 8, !tbaa !5
  br label %10

10:                                               ; preds = %88, %0
  %11 = phi i64 [ 3, %0 ], [ %104, %88 ]
  %12 = phi i32 [ 3, %0 ], [ %102, %88 ]
  %13 = phi i64 [ 2, %0 ], [ %99, %88 ]
  %14 = add nsw i64 %13, -1
  %15 = getelementptr inbounds [100 x i32], [100 x i32]* %3, i64 0, i64 %14
  %16 = load i32, i32* %15, align 4, !tbaa !5
  %17 = add nsw i32 %16, %12
  %18 = getelementptr inbounds [100 x i32], [100 x i32]* %3, i64 0, i64 %11
  store i32 %17, i32* %18, align 4, !tbaa !5
  %19 = add nuw nsw i64 %11, 1
  %20 = icmp eq i64 %19, 100
  br i1 %20, label %21, label %88, !llvm.loop !9

21:                                               ; preds = %10
  %22 = call i32 (i8*, ...) @__isoc99_scanf(i8* getelementptr inbounds ([3 x i8], [3 x i8]* @.str, i64 0, i64 0), i32* nonnull %1)
  %23 = load i32, i32* %1, align 4, !tbaa !5
  %24 = icmp sgt i32 %23, 0
  br i1 %24, label %27, label %87

25:                                               ; preds = %27
  %26 = icmp sgt i32 %32, 0
  br i1 %26, label %35, label %87

27:                                               ; preds = %21, %27
  %28 = phi i64 [ %31, %27 ], [ 0, %21 ]
  %29 = getelementptr inbounds [50 x i32], [50 x i32]* %2, i64 0, i64 %28
  %30 = call i32 (i8*, ...) @__isoc99_scanf(i8* getelementptr inbounds ([3 x i8], [3 x i8]* @.str, i64 0, i64 0), i32* nonnull %29)
  %31 = add nuw nsw i64 %28, 1
  %32 = load i32, i32* %1, align 4, !tbaa !5
  %33 = sext i32 %32 to i64
  %34 = icmp slt i64 %31, %33
  br i1 %34, label %27, label %25, !llvm.loop !11

35:                                               ; preds = %25, %80
  %36 = phi i64 [ %83, %80 ], [ 0, %25 ]
  %37 = getelementptr inbounds [50 x i32], [50 x i32]* %2, i64 0, i64 %36
  %38 = load i32, i32* %37, align 4, !tbaa !5
  %39 = icmp slt i32 %38, 1
  br i1 %39, label %80, label %40

40:                                               ; preds = %35
  %41 = zext i32 %38 to i64
  %42 = and i64 %41, 1
  %43 = icmp eq i32 %38, 1
  br i1 %43, label %67, label %44

44:                                               ; preds = %40
  %45 = and i64 %41, 4294967294
  br label %46

46:                                               ; preds = %46, %44
  %47 = phi i32 [ 1, %44 ], [ %59, %46 ]
  %48 = phi i64 [ 1, %44 ], [ %64, %46 ]
  %49 = phi double [ 0.000000e+00, %44 ], [ %63, %46 ]
  %50 = phi i64 [ %45, %44 ], [ %65, %46 ]
  %51 = getelementptr inbounds [100 x i32], [100 x i32]* %3, i64 0, i64 %48
  %52 = load i32, i32* %51, align 4, !tbaa !5
  %53 = sitofp i32 %52 to double
  %54 = sitofp i32 %47 to double
  %55 = fdiv double %53, %54
  %56 = fadd double %49, %55
  %57 = add nuw nsw i64 %48, 1
  %58 = getelementptr inbounds [100 x i32], [100 x i32]* %3, i64 0, i64 %57
  %59 = load i32, i32* %58, align 4, !tbaa !5
  %60 = sitofp i32 %59 to double
  %61 = sitofp i32 %52 to double
  %62 = fdiv double %60, %61
  %63 = fadd double %56, %62
  %64 = add nuw nsw i64 %48, 2
  %65 = add i64 %50, -2
  %66 = icmp eq i64 %65, 0
  br i1 %66, label %67, label %46, !llvm.loop !12

67:                                               ; preds = %46, %40
  %68 = phi double [ undef, %40 ], [ %63, %46 ]
  %69 = phi i32 [ 1, %40 ], [ %59, %46 ]
  %70 = phi i64 [ 1, %40 ], [ %64, %46 ]
  %71 = phi double [ 0.000000e+00, %40 ], [ %63, %46 ]
  %72 = icmp eq i64 %42, 0
  br i1 %72, label %80, label %73

73:                                               ; preds = %67
  %74 = getelementptr inbounds [100 x i32], [100 x i32]* %3, i64 0, i64 %70
  %75 = load i32, i32* %74, align 4, !tbaa !5
  %76 = sitofp i32 %75 to double
  %77 = sitofp i32 %69 to double
  %78 = fdiv double %76, %77
  %79 = fadd double %71, %78
  br label %80

80:                                               ; preds = %73, %67, %35
  %81 = phi double [ 0.000000e+00, %35 ], [ %68, %67 ], [ %79, %73 ]
  %82 = call i32 (i8*, ...) @printf(i8* nonnull dereferenceable(1) getelementptr inbounds ([7 x i8], [7 x i8]* @.str.1, i64 0, i64 0), double %81)
  %83 = add nuw nsw i64 %36, 1
  %84 = load i32, i32* %1, align 4, !tbaa !5
  %85 = sext i32 %84 to i64
  %86 = icmp slt i64 %83, %85
  br i1 %86, label %35, label %87, !llvm.loop !13

87:                                               ; preds = %80, %21, %25
  call void @llvm.lifetime.end.p0i8(i64 400, i8* nonnull %6) #3
  call void @llvm.lifetime.end.p0i8(i64 200, i8* nonnull %5) #3
  call void @llvm.lifetime.end.p0i8(i64 4, i8* nonnull %4) #3
  ret i32 0

88:                                               ; preds = %10
  %89 = add nsw i64 %11, -1
  %90 = getelementptr inbounds [100 x i32], [100 x i32]* %3, i64 0, i64 %89
  %91 = load i32, i32* %90, align 4, !tbaa !5
  %92 = add nsw i32 %91, %17
  %93 = getelementptr inbounds [100 x i32], [100 x i32]* %3, i64 0, i64 %19
  store i32 %92, i32* %93, align 4, !tbaa !5
  %94 = add nuw nsw i64 %11, 2
  %95 = getelementptr inbounds [100 x i32], [100 x i32]* %3, i64 0, i64 %11
  %96 = load i32, i32* %95, align 4, !tbaa !5
  %97 = add nsw i32 %96, %92
  %98 = getelementptr inbounds [100 x i32], [100 x i32]* %3, i64 0, i64 %94
  store i32 %97, i32* %98, align 4, !tbaa !5
  %99 = add nuw nsw i64 %11, 3
  %100 = getelementptr inbounds [100 x i32], [100 x i32]* %3, i64 0, i64 %19
  %101 = load i32, i32* %100, align 4, !tbaa !5
  %102 = add nsw i32 %101, %97
  %103 = getelementptr inbounds [100 x i32], [100 x i32]* %3, i64 0, i64 %99
  store i32 %102, i32* %103, align 4, !tbaa !5
  %104 = add nuw nsw i64 %11, 4
  br label %10
}

; Function Attrs: argmemonly mustprogress nofree nosync nounwind willreturn
declare void @llvm.lifetime.start.p0i8(i64 immarg, i8* nocapture) #1

; Function Attrs: nofree nounwind
declare noundef i32 @__isoc99_scanf(i8* nocapture noundef readonly, ...) local_unnamed_addr #2

; Function Attrs: nofree nounwind
declare noundef i32 @printf(i8* nocapture noundef readonly, ...) local_unnamed_addr #2

; Function Attrs: argmemonly mustprogress nofree nosync nounwind willreturn
declare void @llvm.lifetime.end.p0i8(i64 immarg, i8* nocapture) #1


!llvm.module.flags = !{!0, !1, !2, !3}
!llvm.ident = !{!4}

!0 = !{i32 1, !"wchar_size", i32 4}
!1 = !{i32 7, !"PIC Level", i32 2}
!2 = !{i32 7, !"PIE Level", i32 2}
!3 = !{i32 7, !"uwtable", i32 1}
!4 = !{!"clang version 13.0.0"}
!5 = !{!6, !6, i64 0}
!6 = !{!"int", !7, i64 0}
!7 = !{!"omnipotent char", !8, i64 0}
!8 = !{!"Simple C/C++ TBAA"}
!9 = distinct !{!9, !10}
!10 = !{!"llvm.loop.mustprogress"}
!11 = distinct !{!11, !10}
!12 = distinct !{!12, !10}
!13 = distinct !{!13, !10}
